; Function Attrs: mustprogress uwtable
define noundef i32 @_Z50alts_grpc_privacy_integrity_record_protocol_createP17gsec_aead_cryptermbbPP25alts_grpc_record_protocol(ptr noundef %0, i64 noundef %1, i1 noundef zeroext %2, i1 noundef zeroext %3, ptr noundef writeonly %4) local_unnamed_addr #3 personality ptr @__gxx_personality_v0 {
  %6 = alloca %"class.absl::lts_20240722::log_internal::LogMessage", align 8
  %7 = icmp eq ptr %0, null
  %8 = icmp eq ptr %4, null
  %or.cond = or i1 %7, %8
  br i1 %or.cond, label %9, label %12

9:                                                ; preds = %5
  call void @llvm.lifetime.start.p0(i64 16, ptr nonnull %6) #10
  call void @_ZN4absl12lts_2024072212log_internal10LogMessageC1EPKciNS2_8ErrorTagE(ptr noundef nonnull align 8 dereferenceable(16) %6, ptr noundef nonnull @.str, i32 noundef 127) #11
  invoke void @_ZN4absl12lts_2024072212log_internal10LogMessage19CopyToEncodedBufferILNS2_10StringTypeE0EEEvSt17basic_string_viewIcSt11char_traitsIcEE(ptr noundef nonnull align 8 dereferenceable(16) %6, i64 62, ptr nonnull @.str.1)
          to label %_ZN4absl12lts_2024072212log_internal10LogMessagelsILi63EEERS2_RAT__Kc.exit unwind label %10

_ZN4absl12lts_2024072212log_internal10LogMessagelsILi63EEERS2_RAT__Kc.exit: ; preds = %9
  call void @_ZN4absl12lts_2024072212log_internal10LogMessageD1Ev(ptr noundef nonnull align 8 dereferenceable(16) %6) #12
  call void @llvm.lifetime.end.p0(i64 16, ptr nonnull %6) #10
  br label %17

10:                                               ; preds = %9
  %11 = landingpad { ptr, i32 }
          cleanup
  call void @_ZN4absl12lts_2024072212log_internal10LogMessageD1Ev(ptr noundef nonnull align 8 dereferenceable(16) %6) #12
  call void @llvm.lifetime.end.p0(i64 16, ptr nonnull %6) #10
  resume { ptr, i32 } %11

12:                                               ; preds = %5
  %13 = tail call ptr @gpr_zalloc(i64 noundef 288)
  %14 = tail call noundef i32 @_Z30alts_grpc_record_protocol_initP25alts_grpc_record_protocolP17gsec_aead_cryptermbbb(ptr noundef %13, ptr noundef nonnull %0, i64 noundef %1, i1 noundef zeroext %2, i1 noundef zeroext false, i1 noundef zeroext %3)
  %.not = icmp eq i32 %14, 0
  br i1 %.not, label %16, label %15

15:                                               ; preds = %12
  tail call void @gpr_free(ptr noundef %13)
  br label %17

16:                                               ; preds = %12
  store ptr @_ZL50alts_grpc_privacy_integrity_record_protocol_vtable, ptr %13, align 8, !tbaa !3
  store ptr %13, ptr %4, align 8, !tbaa !15
  br label %17

17:                                               ; preds = %15, %16, %_ZN4absl12lts_2024072212log_internal10LogMessagelsILi63EEERS2_RAT__Kc.exit
  %.0 = phi i32 [ 2, %_ZN4absl12lts_2024072212log_internal10LogMessagelsILi63EEERS2_RAT__Kc.exit ], [ %14, %15 ], [ 0, %16 ]
  ret i32 %.0
}